Archive member included to satisfy reference by file (symbol)

c:/devkitpro/devkitppc/bin/../lib/gcc/powerpc-eabi/8.3.0\libgcc.a(crtresxgpr.o)
                              C:\Users\swd-modz\.babun\cygwin\tmp\ccQSxtSw.o (_restgpr_18_x)

Allocating common symbols
Common symbol       size              file

g_aMBTable          0x50              C:\Users\swd-modz\.babun\cygwin\tmp\ccQSxtSw.o
font_size           0x400             C:\Users\swd-modz\.babun\cygwin\tmp\ccQSxtSw.o
font_height         0x4               C:\Users\swd-modz\.babun\cygwin\tmp\ccQSxtSw.o
font_offset         0x400             C:\Users\swd-modz\.babun\cygwin\tmp\ccQSxtSw.o

Discarded input sections

 .data          0x0000000000000000        0x0 C:\Users\swd-modz\.babun\cygwin\tmp\ccxAcIBg.o
 .bss           0x0000000000000000        0x0 C:\Users\swd-modz\.babun\cygwin\tmp\ccxAcIBg.o
 .bss           0x0000000000000000        0x0 C:\Users\swd-modz\.babun\cygwin\tmp\ccQSxtSw.o
 .eh_frame      0x0000000000000000      0x190 C:\Users\swd-modz\.babun\cygwin\tmp\ccQSxtSw.o
 .data          0x0000000000000000        0x0 c:/devkitpro/devkitppc/bin/../lib/gcc/powerpc-eabi/8.3.0\libgcc.a(crtresxgpr.o)
 .bss           0x0000000000000000        0x0 c:/devkitpro/devkitppc/bin/../lib/gcc/powerpc-eabi/8.3.0\libgcc.a(crtresxgpr.o)
 .eh_frame      0x0000000000000000       0x7c c:/devkitpro/devkitppc/bin/../lib/gcc/powerpc-eabi/8.3.0\libgcc.a(crtresxgpr.o)

Memory Configuration

Name             Origin             Length             Attributes
*default*        0x0000000000000000 0xffffffffffffffff

Linker script and memory map

                0x0000000081700000                . = 0x81700000

.text           0x0000000081700000      0x5c0
 *(.text)
 .text          0x0000000081700000       0x66 C:\Users\swd-modz\.babun\cygwin\tmp\ccxAcIBg.o
                0x0000000081700000                _start
                0x0000000081700008                __eabi
                0x000000008170000c                GetMSR
                0x0000000081700014                SetMSR
                0x000000008170001c                dcache_flush_icache_inv
                0x0000000081700054                szDriveVer
 *fill*         0x0000000081700066        0x2 
 .text          0x0000000081700068      0x500 C:\Users\swd-modz\.babun\cygwin\tmp\ccQSxtSw.o
                0x00000000817003f4                fn_load_dol_fn_inmem
                0x00000000817004d4                InitSystem
 .text          0x0000000081700568       0x58 c:/devkitpro/devkitppc/bin/../lib/gcc/powerpc-eabi/8.3.0\libgcc.a(crtresxgpr.o)
                0x0000000081700568                _restgpr_14_x
                0x000000008170056c                _restgpr_15_x
                0x0000000081700570                _restgpr_16_x
                0x0000000081700574                _restgpr_17_x
                0x0000000081700578                _restgpr_18_x
                0x000000008170057c                _restgpr_19_x
                0x0000000081700580                _restgpr_20_x
                0x0000000081700584                _restgpr_21_x
                0x0000000081700588                _restgpr_22_x
                0x000000008170058c                _restgpr_23_x
                0x0000000081700590                _restgpr_24_x
                0x0000000081700594                _restgpr_25_x
                0x0000000081700598                _restgpr_26_x
                0x000000008170059c                _restgpr_27_x
                0x00000000817005a0                _restgpr_28_x
                0x00000000817005a4                _restgpr_29_x
                0x00000000817005a8                _restgpr_30_x
                0x00000000817005ac                _restgpr_31_x

.text.startup   0x00000000817005c0      0x4c4
 .text.startup  0x00000000817005c0      0x4c4 C:\Users\swd-modz\.babun\cygwin\tmp\ccQSxtSw.o
                0x00000000817005c0                main

.glink          0x0000000081700a84        0x0
 .glink         0x0000000081700a84        0x0 C:\Users\swd-modz\.babun\cygwin\tmp\ccQSxtSw.o

.data           0x0000000081700a84      0x100
 *(.data)
 .data          0x0000000081700a84      0x100 C:\Users\swd-modz\.babun\cygwin\tmp\ccQSxtSw.o

.branch_lt      0x0000000081700b84        0x0
 .branch_lt     0x0000000081700b84        0x0 C:\Users\swd-modz\.babun\cygwin\tmp\ccQSxtSw.o

.sdata          0x0000000081700b84       0x14
 *(.sdata)
 .sdata         0x0000000081700b84       0x14 C:\Users\swd-modz\.babun\cygwin\tmp\ccQSxtSw.o
                0x0000000081700b84                dvd
                0x0000000081700b88                ebase
                0x0000000081700b8c                g_nX
                0x0000000081700b90                vidHeight
                0x0000000081700b94                fb
                0x0000000081708b84                _SDA_BASE_
 .sdata         0x0000000081700b98        0x0 C:\Users\swd-modz\.babun\cygwin\tmp\ccQSxtSw.o

.rodata         0x0000000081700b98       0xc0
 *(.rodata)
 .rodata        0x0000000081700b98       0xc0 C:\Users\swd-modz\.babun\cygwin\tmp\ccQSxtSw.o
                0x0000000081700c58                __bss_start = .

.rodata.str1.1  0x0000000081700c58       0xcc
 .rodata.str1.1
                0x0000000081700c58       0xcc C:\Users\swd-modz\.babun\cygwin\tmp\ccQSxtSw.o
                                         0xce (size before relaxing)

.eh_frame_hdr   0x0000000081700d24        0x0
 .eh_frame_hdr  0x0000000081700d24        0x0 C:\Users\swd-modz\.babun\cygwin\tmp\ccQSxtSw.o

.eh_frame       0x0000000081700d24        0x0
 .eh_frame      0x0000000081700d24        0x0 C:\Users\swd-modz\.babun\cygwin\tmp\ccQSxtSw.o

.sdata2         0x0000000081700d24        0x0
 .sdata2        0x0000000081700d24        0x0 C:\Users\swd-modz\.babun\cygwin\tmp\ccQSxtSw.o

.rela.dyn       0x0000000081700d24        0x0
 .rela.iplt     0x0000000081700d24        0x0 C:\Users\swd-modz\.babun\cygwin\tmp\ccQSxtSw.o
 .rela.text     0x0000000081700d24        0x0 C:\Users\swd-modz\.babun\cygwin\tmp\ccQSxtSw.o
 .rela.text.startup
                0x0000000081700d24        0x0 C:\Users\swd-modz\.babun\cygwin\tmp\ccQSxtSw.o

.bss            0x0000000081700d40      0x850
 *(.bss)
 COMMON         0x0000000081700d40      0x850 C:\Users\swd-modz\.babun\cygwin\tmp\ccQSxtSw.o
                0x0000000081700d40                g_aMBTable
                0x0000000081700d90                font_size
                0x0000000081701190                font_offset

.iplt           0x0000000081701590        0x0
 .iplt          0x0000000081701590        0x0 C:\Users\swd-modz\.babun\cygwin\tmp\ccQSxtSw.o

.sbss           0x0000000081701590        0x8
 *(.sbss)
 .sbss          0x0000000081701590        0x2 C:\Users\swd-modz\.babun\cygwin\tmp\ccQSxtSw.o
                0x0000000081701590                g_nY
 *fill*         0x0000000081701592        0x2 
 .sbss          0x0000000081701594        0x4 C:\Users\swd-modz\.babun\cygwin\tmp\ccQSxtSw.o
                0x0000000081701594                font_height
                0x0000000081701598                __bss_end = .
                0x0000000081701598                _end = .
LOAD C:\Users\swd-modz\.babun\cygwin\tmp\ccxAcIBg.o
LOAD C:\Users\swd-modz\.babun\cygwin\tmp\ccQSxtSw.o
LOAD c:/devkitpro/devkitppc/bin/../lib/gcc/powerpc-eabi/8.3.0\libgcc.a
OUTPUT(XenoShell/source/XenoShell.elf elf32-powerpc)

.comment        0x0000000000000000       0x22
 .comment       0x0000000000000000       0x22 C:\Users\swd-modz\.babun\cygwin\tmp\ccQSxtSw.o
                                         0x23 (size before relaxing)
